; Function Attrs: mustprogress uwtable
define void @_ZNK2cv10MediaFrame6accessENS0_6AccessE(ptr dead_on_unwind noalias writable sret(%"class.cv::MediaFrame::View") align 8 %0, ptr noundef nonnull readonly align 8 captures(none) dereferenceable(16) %1, i32 noundef %2) local_unnamed_addr #4 align 2 {
  %4 = load ptr, ptr %1, align 8, !tbaa !8
  %5 = load ptr, ptr %4, align 8, !tbaa !3
  %6 = load ptr, ptr %5, align 8, !tbaa !14
  %7 = getelementptr inbounds nuw i8, ptr %6, i64 24
  %8 = load ptr, ptr %7, align 8
  tail call void %8(ptr dead_on_unwind writable sret(%"class.cv::MediaFrame::View") align 8 %0, ptr noundef nonnull align 8 dereferenceable(8) %5, i32 noundef %2)
  ret void
}